target datalayout = "e-m:e-p270:32:32-p271:32:32-p272:64:64-i64:64-i128:128-f80:128-n8:16:32:64-S128"
target triple = "x86_64-pc-linux-gnu"

@.str = private unnamed_addr constant [34 x i8] c"../openssl/crypto/evp/evp_fetch.c\00", align 1
@__func__.evp_set_default_properties_int = private unnamed_addr constant [31 x i8] c"evp_set_default_properties_int\00", align 1
@.str.2 = private unnamed_addr constant [9 x i8] c"fips=yes\00", align 1
@.str.3 = private unnamed_addr constant [6 x i8] c"-fips\00", align 1
@__func__.evp_default_properties_merge = private unnamed_addr constant [29 x i8] c"evp_default_properties_merge\00", align 1

; Function Attrs: nounwind uwtable
define i32 @evp_set_default_properties_int(ptr noundef %0, ptr noundef %1, i32 noundef %2, i32 noundef %3) #0 {
  %5 = alloca i32, align 4
  %6 = alloca ptr, align 8
  %7 = alloca ptr, align 8
  %8 = alloca i32, align 4
  %9 = alloca i32, align 4
  %10 = alloca ptr, align 8
  %11 = alloca i32, align 4
  store ptr %0, ptr %6, align 8, !tbaa !3
  store ptr %1, ptr %7, align 8, !tbaa !10
  store i32 %2, ptr %8, align 4, !tbaa !8
  store i32 %3, ptr %9, align 4, !tbaa !8
  call void @llvm.lifetime.start.p0(i64 8, ptr %10) #6
  store ptr null, ptr %10, align 8, !tbaa !31
  %12 = load ptr, ptr %7, align 8, !tbaa !10
  %13 = icmp ne ptr %12, null
  br i1 %13, label %14, label %20

14:                                               ; preds = %4
  %15 = load ptr, ptr %6, align 8, !tbaa !3
  %16 = load ptr, ptr %7, align 8, !tbaa !10
  %17 = call ptr @ossl_parse_query(ptr noundef %15, ptr noundef %16, i32 noundef 1)
  store ptr %17, ptr %10, align 8, !tbaa !31
  %18 = icmp eq ptr %17, null
  br i1 %18, label %19, label %20

19:                                               ; preds = %14
  call void @ERR_new()
  call void @ERR_set_debug(ptr noundef @.str, i32 noundef 515, ptr noundef @__func__.evp_set_default_properties_int)
  call void (i32, i32, ptr, ...) @ERR_set_error(i32 noundef 6, i32 noundef 210, ptr noundef null)
  store i32 0, ptr %5, align 4
  store i32 1, ptr %11, align 4
  br label %30

20:                                               ; preds = %14, %4
  %21 = load ptr, ptr %6, align 8, !tbaa !3
  %22 = load ptr, ptr %10, align 8, !tbaa !31
  %23 = load i32, ptr %8, align 4, !tbaa !8
  %24 = load i32, ptr %9, align 4, !tbaa !8
  %25 = call i32 @evp_set_parsed_default_properties(ptr noundef %21, ptr noundef %22, i32 noundef %23, i32 noundef %24)
  %26 = icmp ne i32 %25, 0
  br i1 %26, label %29, label %27

27:                                               ; preds = %20
  %28 = load ptr, ptr %10, align 8, !tbaa !31
  call void @ossl_property_free(ptr noundef %28)
  store i32 0, ptr %5, align 4
  store i32 1, ptr %11, align 4
  br label %30

29:                                               ; preds = %20
  store i32 1, ptr %5, align 4
  store i32 1, ptr %11, align 4
  br label %30

30:                                               ; preds = %29, %27, %19
  call void @llvm.lifetime.end.p0(i64 8, ptr %10) #6
  %31 = load i32, ptr %5, align 4
  ret i32 %31
}

; Function Attrs: nounwind uwtable
define internal i32 @evp_default_properties_merge(ptr noundef %0, ptr noundef %1, i32 noundef %2) #0 {
  %4 = alloca i32, align 4
  %5 = alloca ptr, align 8
  %6 = alloca ptr, align 8
  %7 = alloca i32, align 4
  %8 = alloca ptr, align 8
  %9 = alloca ptr, align 8
  %10 = alloca ptr, align 8
  %11 = alloca i32, align 4
  store ptr %0, ptr %5, align 8, !tbaa !3
  store ptr %1, ptr %6, align 8, !tbaa !10
  store i32 %2, ptr %7, align 4, !tbaa !8
  call void @llvm.lifetime.start.p0(i64 8, ptr %8) #6
  %12 = load ptr, ptr %5, align 8, !tbaa !3
  %13 = load i32, ptr %7, align 4, !tbaa !8
  %14 = call ptr @ossl_ctx_global_properties(ptr noundef %12, i32 noundef %13)
  store ptr %14, ptr %8, align 8, !tbaa !33
  call void @llvm.lifetime.start.p0(i64 8, ptr %9) #6
  call void @llvm.lifetime.start.p0(i64 8, ptr %10) #6
  %15 = load ptr, ptr %6, align 8, !tbaa !10
  %16 = icmp eq ptr %15, null
  br i1 %16, label %17, label %18

17:                                               ; preds = %3
  store i32 1, ptr %4, align 4
  store i32 1, ptr %11, align 4
  br label %52

18:                                               ; preds = %3
  %19 = load ptr, ptr %8, align 8, !tbaa !33
  %20 = icmp eq ptr %19, null
  br i1 %20, label %25, label %21

21:                                               ; preds = %18
  %22 = load ptr, ptr %8, align 8, !tbaa !33
  %23 = load ptr, ptr %22, align 8, !tbaa !31
  %24 = icmp eq ptr %23, null
  br i1 %24, label %25, label %29

25:                                               ; preds = %21, %18
  %26 = load ptr, ptr %5, align 8, !tbaa !3
  %27 = load ptr, ptr %6, align 8, !tbaa !10
  %28 = call i32 @evp_set_default_properties_int(ptr noundef %26, ptr noundef %27, i32 noundef 0, i32 noundef 0)
  store i32 %28, ptr %4, align 4
  store i32 1, ptr %11, align 4
  br label %52

29:                                               ; preds = %21
  %30 = load ptr, ptr %5, align 8, !tbaa !3
  %31 = load ptr, ptr %6, align 8, !tbaa !10
  %32 = call ptr @ossl_parse_query(ptr noundef %30, ptr noundef %31, i32 noundef 1)
  store ptr %32, ptr %9, align 8, !tbaa !31
  %33 = icmp eq ptr %32, null
  br i1 %33, label %34, label %35

34:                                               ; preds = %29
  call void @ERR_new()
  call void @ERR_set_debug(ptr noundef @.str, i32 noundef 541, ptr noundef @__func__.evp_default_properties_merge)
  call void (i32, i32, ptr, ...) @ERR_set_error(i32 noundef 6, i32 noundef 210, ptr noundef null)
  store i32 0, ptr %4, align 4
  store i32 1, ptr %11, align 4
  br label %52

35:                                               ; preds = %29
  %36 = load ptr, ptr %9, align 8, !tbaa !31
  %37 = load ptr, ptr %8, align 8, !tbaa !33
  %38 = load ptr, ptr %37, align 8, !tbaa !31
  %39 = call ptr @ossl_property_merge(ptr noundef %36, ptr noundef %38)
  store ptr %39, ptr %10, align 8, !tbaa !31
  %40 = load ptr, ptr %9, align 8, !tbaa !31
  call void @ossl_property_free(ptr noundef %40)
  %41 = load ptr, ptr %10, align 8, !tbaa !31
  %42 = icmp eq ptr %41, null
  br i1 %42, label %43, label %44

43:                                               ; preds = %35
  call void @ERR_new()
  call void @ERR_set_debug(ptr noundef @.str, i32 noundef 547, ptr noundef @__func__.evp_default_properties_merge)
  call void (i32, i32, ptr, ...) @ERR_set_error(i32 noundef 6, i32 noundef 524303, ptr noundef null)
  store i32 0, ptr %4, align 4
  store i32 1, ptr %11, align 4
  br label %52

44:                                               ; preds = %35
  %45 = load ptr, ptr %5, align 8, !tbaa !3
  %46 = load ptr, ptr %10, align 8, !tbaa !31
  %47 = call i32 @evp_set_parsed_default_properties(ptr noundef %45, ptr noundef %46, i32 noundef 0, i32 noundef 0)
  %48 = icmp ne i32 %47, 0
  br i1 %48, label %51, label %49

49:                                               ; preds = %44
  %50 = load ptr, ptr %10, align 8, !tbaa !31
  call void @ossl_property_free(ptr noundef %50)
  store i32 0, ptr %4, align 4
  store i32 1, ptr %11, align 4
  br label %52

51:                                               ; preds = %44
  store i32 1, ptr %4, align 4
  store i32 1, ptr %11, align 4
  br label %52

52:                                               ; preds = %51, %49, %43, %34, %25, %17
  call void @llvm.lifetime.end.p0(i64 8, ptr %10) #6
  call void @llvm.lifetime.end.p0(i64 8, ptr %9) #6
  call void @llvm.lifetime.end.p0(i64 8, ptr %8) #6
  %53 = load i32, ptr %4, align 4
  ret i32 %53
}

; Function Attrs: nounwind uwtable
define i32 @evp_default_properties_enable_fips_int(ptr noundef %0, i32 noundef %1, i32 noundef %2) #0 {
  %4 = alloca ptr, align 8
  %5 = alloca i32, align 4
  %6 = alloca i32, align 4
  %7 = alloca ptr, align 8
  store ptr %0, ptr %4, align 8, !tbaa !3
  store i32 %1, ptr %5, align 4, !tbaa !8
  store i32 %2, ptr %6, align 4, !tbaa !8
  call void @llvm.lifetime.start.p0(i64 8, ptr %7) #6
  %8 = load i32, ptr %5, align 4, !tbaa !8
  %9 = icmp ne i32 %8, 0
  %10 = select i1 %9, ptr @.str.2, ptr @.str.3
  store ptr %10, ptr %7, align 8, !tbaa !10
  %11 = load ptr, ptr %4, align 8, !tbaa !3
  %12 = load ptr, ptr %7, align 8, !tbaa !10
  %13 = load i32, ptr %6, align 4, !tbaa !8
  %14 = call i32 @evp_default_properties_merge(ptr noundef %11, ptr noundef %12, i32 noundef %13)
  call void @llvm.lifetime.end.p0(i64 8, ptr %7) #6
  ret i32 %14
}