; Function Attrs: nounwind uwtable
define range(i32 0, 2) i32 @evp_default_properties_enable_fips_int(ptr noundef %0, i32 noundef %1, i32 noundef %2) local_unnamed_addr #0 {
  %.not = icmp eq i32 %1, 0
  %4 = select i1 %.not, ptr @.str.3, ptr @.str.2
  %5 = tail call ptr @ossl_ctx_global_properties(ptr noundef %0, i32 noundef %2) #5
  %6 = icmp eq ptr %5, null
  br i1 %6, label %10, label %7

7:                                                ; preds = %3
  %8 = load ptr, ptr %5, align 8, !tbaa !24
  %9 = icmp eq ptr %8, null
  br i1 %9, label %10, label %17

10:                                               ; preds = %7, %3
  %11 = tail call ptr @ossl_parse_query(ptr noundef %0, ptr noundef nonnull %4, i32 noundef 1) #5
  %12 = icmp eq ptr %11, null
  br i1 %12, label %13, label %14

13:                                               ; preds = %10
  tail call void @ERR_new() #5
  tail call void @ERR_set_debug(ptr noundef nonnull @.str, i32 noundef 515, ptr noundef nonnull @__func__.evp_set_default_properties_int) #5
  tail call void (i32, i32, ptr, ...) @ERR_set_error(i32 noundef 6, i32 noundef 210, ptr noundef null) #5
  br label %evp_default_properties_merge.exit

14:                                               ; preds = %10
  %15 = tail call fastcc i32 @evp_set_parsed_default_properties(ptr noundef %0, ptr noundef nonnull %11, i32 noundef 0, i32 noundef 0)
  %.not11.i.i = icmp eq i32 %15, 0
  br i1 %.not11.i.i, label %16, label %evp_default_properties_merge.exit

16:                                               ; preds = %14
  tail call void @ossl_property_free(ptr noundef nonnull %11) #5
  br label %evp_default_properties_merge.exit

17:                                               ; preds = %7
  %18 = tail call ptr @ossl_parse_query(ptr noundef %0, ptr noundef nonnull %4, i32 noundef 1) #5
  %19 = icmp eq ptr %18, null
  br i1 %19, label %20, label %21

20:                                               ; preds = %17
  tail call void @ERR_new() #5
  tail call void @ERR_set_debug(ptr noundef nonnull @.str, i32 noundef 541, ptr noundef nonnull @__func__.evp_default_properties_merge) #5
  tail call void (i32, i32, ptr, ...) @ERR_set_error(i32 noundef 6, i32 noundef 210, ptr noundef null) #5
  br label %evp_default_properties_merge.exit

21:                                               ; preds = %17
  %22 = load ptr, ptr %5, align 8, !tbaa !24
  %23 = tail call ptr @ossl_property_merge(ptr noundef nonnull %18, ptr noundef %22) #5
  tail call void @ossl_property_free(ptr noundef nonnull %18) #5
  %24 = icmp eq ptr %23, null
  br i1 %24, label %25, label %26

25:                                               ; preds = %21
  tail call void @ERR_new() #5
  tail call void @ERR_set_debug(ptr noundef nonnull @.str, i32 noundef 547, ptr noundef nonnull @__func__.evp_default_properties_merge) #5
  tail call void (i32, i32, ptr, ...) @ERR_set_error(i32 noundef 6, i32 noundef 524303, ptr noundef null) #5
  br label %evp_default_properties_merge.exit

26:                                               ; preds = %21
  %27 = tail call fastcc i32 @evp_set_parsed_default_properties(ptr noundef %0, ptr noundef nonnull %23, i32 noundef 0, i32 noundef 0)
  %.not.i = icmp eq i32 %27, 0
  br i1 %.not.i, label %28, label %evp_default_properties_merge.exit

28:                                               ; preds = %26
  tail call void @ossl_property_free(ptr noundef nonnull %23) #5
  br label %evp_default_properties_merge.exit

evp_default_properties_merge.exit:                ; preds = %13, %14, %16, %20, %25, %26, %28
  %.0.i = phi i32 [ 0, %20 ], [ 0, %25 ], [ 0, %28 ], [ 1, %26 ], [ 0, %13 ], [ 0, %16 ], [ 1, %14 ]
  ret i32 %.0.i
}